target datalayout = "e-m:e-p270:32:32-p271:32:32-p272:64:64-i64:64-i128:128-f80:128-n8:16:32:64-S128"
target triple = "x86_64-pc-linux-gnu"

%struct._packet_info = type { ptr, ptr, i32, i32, %struct.nstime_t, %struct.nstime_t, %struct.nstime_t, i8, ptr, ptr, ptr, ptr, %struct._address, %struct._address, %struct._address, %struct._address, %struct._address, %struct._address, i32, ptr, i8, [3 x i8], %struct.anon, i32, i32, i32, i32, ptr, i8, ptr, ptr, i16, i16, i32, i32, i16, i32, i32, ptr, ptr, ptr, i8, i8, i16, i16, i16, i32, i16, i16, ptr, ptr, ptr, ptr, ptr, i32, i32 }
%struct.nstime_t = type { i64, i32 }
%struct._address = type { i32, i32, ptr, ptr }
%struct.anon = type { i8, [3 x i8] }

@hf_kafka_broker_host = internal global i32 0, align 4
@hf_kafka_listener_name = internal global i32 0, align 4
@hf_kafka_broker_port = internal global i32 0, align 4
@hf_kafka_broker_security_protocol_type = internal global i32 0, align 4
@ett_kafka_broker_end_point = internal global i32 0, align 4
@.str.692 = private unnamed_addr constant [10 x i8] c"End Point\00", align 1
@.str.693 = private unnamed_addr constant [14 x i8] c" (%s://%s:%d)\00", align 1
@.str.694 = private unnamed_addr constant [8 x i8] c"UNKNOWN\00", align 1

; Function Attrs: null_pointer_is_valid sspstrong uwtable
define internal i32 @dissect_kafka_int16(ptr noundef %0, i32 noundef %1, ptr noundef %2, ptr noundef %3, i32 noundef %4, ptr noundef %5) #0 {
  %7 = alloca ptr, align 8
  %8 = alloca i32, align 4
  %9 = alloca ptr, align 8
  %10 = alloca ptr, align 8
  %11 = alloca i32, align 4
  %12 = alloca ptr, align 8
  store ptr %0, ptr %7, align 8
  store i32 %1, ptr %8, align 4
  store ptr %2, ptr %9, align 8
  store ptr %3, ptr %10, align 8
  store i32 %4, ptr %11, align 4
  store ptr %5, ptr %12, align 8
  %13 = load ptr, ptr %12, align 8
  %14 = icmp ne ptr %13, null
  br i1 %14, label %15, label %20

15:                                               ; preds = %6
  %16 = load ptr, ptr %9, align 8
  %17 = load i32, ptr %11, align 4
  %18 = call signext i16 @tvb_get_int16(ptr noundef %16, i32 noundef %17, i32 noundef 0)
  %19 = load ptr, ptr %12, align 8
  store i16 %18, ptr %19, align 2
  br label %20

20:                                               ; preds = %15, %6
  %21 = load ptr, ptr %7, align 8
  %22 = load i32, ptr %8, align 4
  %23 = load ptr, ptr %9, align 8
  %24 = load i32, ptr %11, align 4
  %25 = call ptr @proto_tree_add_item(ptr noundef %21, i32 noundef %22, ptr noundef %23, i32 noundef %24, i32 noundef 2, i32 noundef 0)
  %26 = load i32, ptr %11, align 4
  %27 = add i32 %26, 2
  ret i32 %27
}

; Function Attrs: null_pointer_is_valid sspstrong uwtable
define internal i32 @dissect_kafka_int32(ptr noundef %0, i32 noundef %1, ptr noundef %2, ptr noundef %3, i32 noundef %4, ptr noundef %5) #0 {
  %7 = alloca ptr, align 8
  %8 = alloca i32, align 4
  %9 = alloca ptr, align 8
  %10 = alloca ptr, align 8
  %11 = alloca i32, align 4
  %12 = alloca ptr, align 8
  store ptr %0, ptr %7, align 8
  store i32 %1, ptr %8, align 4
  store ptr %2, ptr %9, align 8
  store ptr %3, ptr %10, align 8
  store i32 %4, ptr %11, align 4
  store ptr %5, ptr %12, align 8
  %13 = load ptr, ptr %12, align 8
  %14 = icmp ne ptr %13, null
  br i1 %14, label %15, label %20

15:                                               ; preds = %6
  %16 = load ptr, ptr %9, align 8
  %17 = load i32, ptr %11, align 4
  %18 = call i32 @tvb_get_int32(ptr noundef %16, i32 noundef %17, i32 noundef 0)
  %19 = load ptr, ptr %12, align 8
  store i32 %18, ptr %19, align 4
  br label %20

20:                                               ; preds = %15, %6
  %21 = load ptr, ptr %7, align 8
  %22 = load i32, ptr %8, align 4
  %23 = load ptr, ptr %9, align 8
  %24 = load i32, ptr %11, align 4
  %25 = call ptr @proto_tree_add_item(ptr noundef %21, i32 noundef %22, ptr noundef %23, i32 noundef %24, i32 noundef 4, i32 noundef 0)
  %26 = load i32, ptr %11, align 4
  %27 = add i32 %26, 4
  ret i32 %27
}

; Function Attrs: null_pointer_is_valid sspstrong uwtable
define internal i32 @dissect_kafka_update_metadata_request_endpoint(ptr noundef %0, ptr noundef %1, ptr noundef %2, i32 noundef %3, i16 noundef signext %4) #0 {
  %6 = alloca ptr, align 8
  %7 = alloca ptr, align 8
  %8 = alloca ptr, align 8
  %9 = alloca i32, align 4
  %10 = alloca i16, align 2
  %11 = alloca ptr, align 8
  %12 = alloca ptr, align 8
  %13 = alloca i32, align 4
  %14 = alloca i32, align 4
  %15 = alloca i32, align 4
  %16 = alloca i16, align 2
  store ptr %0, ptr %6, align 8
  store ptr %1, ptr %7, align 8
  store ptr %2, ptr %8, align 8
  store i32 %3, ptr %9, align 4
  store i16 %4, ptr %10, align 2
  call void @llvm.lifetime.start.p0(i64 8, ptr %11) #12
  call void @llvm.lifetime.start.p0(i64 8, ptr %12) #12
  call void @llvm.lifetime.start.p0(i64 4, ptr %13) #12
  call void @llvm.lifetime.start.p0(i64 4, ptr %14) #12
  call void @llvm.lifetime.start.p0(i64 4, ptr %15) #12
  call void @llvm.lifetime.start.p0(i64 2, ptr %16) #12
  %17 = load ptr, ptr %8, align 8
  %18 = load ptr, ptr %6, align 8
  %19 = load i32, ptr %9, align 4
  %20 = load i32, ptr @ett_kafka_broker_end_point, align 4
  %21 = call ptr @proto_tree_add_subtree(ptr noundef %17, ptr noundef %18, i32 noundef %19, i32 noundef -1, i32 noundef %20, ptr noundef %11, ptr noundef @.str.692)
  store ptr %21, ptr %12, align 8
  %22 = load ptr, ptr %12, align 8
  %23 = load i32, ptr @hf_kafka_broker_port, align 4
  %24 = load ptr, ptr %6, align 8
  %25 = load ptr, ptr %7, align 8
  %26 = load i32, ptr %9, align 4
  %27 = call i32 @dissect_kafka_int32(ptr noundef %22, i32 noundef %23, ptr noundef %24, ptr noundef %25, i32 noundef %26, ptr noundef %15)
  store i32 %27, ptr %9, align 4
  %28 = load ptr, ptr %12, align 8
  %29 = load i32, ptr @hf_kafka_broker_host, align 4
  %30 = load ptr, ptr %6, align 8
  %31 = load ptr, ptr %7, align 8
  %32 = load i32, ptr %9, align 4
  %33 = load i16, ptr %10, align 2
  %34 = sext i16 %33 to i32
  %35 = icmp sge i32 %34, 6
  %36 = zext i1 %35 to i32
  %37 = call i32 @dissect_kafka_string(ptr noundef %28, i32 noundef %29, ptr noundef %30, ptr noundef %31, i32 noundef %32, i32 noundef %36, ptr noundef %13, ptr noundef %14)
  store i32 %37, ptr %9, align 4
  %38 = load i16, ptr %10, align 2
  %39 = sext i16 %38 to i32
  %40 = icmp sge i32 %39, 3
  br i1 %40, label %41, label %52

41:                                               ; preds = %5
  %42 = load ptr, ptr %12, align 8
  %43 = load i32, ptr @hf_kafka_listener_name, align 4
  %44 = load ptr, ptr %6, align 8
  %45 = load ptr, ptr %7, align 8
  %46 = load i32, ptr %9, align 4
  %47 = load i16, ptr %10, align 2
  %48 = sext i16 %47 to i32
  %49 = icmp sge i32 %48, 6
  %50 = zext i1 %49 to i32
  %51 = call i32 @dissect_kafka_string(ptr noundef %42, i32 noundef %43, ptr noundef %44, ptr noundef %45, i32 noundef %46, i32 noundef %50, ptr noundef null, ptr noundef null)
  store i32 %51, ptr %9, align 4
  br label %52

52:                                               ; preds = %41, %5
  %53 = load ptr, ptr %12, align 8
  %54 = load i32, ptr @hf_kafka_broker_security_protocol_type, align 4
  %55 = load ptr, ptr %6, align 8
  %56 = load ptr, ptr %7, align 8
  %57 = load i32, ptr %9, align 4
  %58 = call i32 @dissect_kafka_int16(ptr noundef %53, i32 noundef %54, ptr noundef %55, ptr noundef %56, i32 noundef %57, ptr noundef %16)
  store i32 %58, ptr %9, align 4
  %59 = load i16, ptr %10, align 2
  %60 = sext i16 %59 to i32
  %61 = icmp sge i32 %60, 6
  br i1 %61, label %62, label %68

62:                                               ; preds = %52
  %63 = load ptr, ptr %6, align 8
  %64 = load ptr, ptr %7, align 8
  %65 = load ptr, ptr %12, align 8
  %66 = load i32, ptr %9, align 4
  %67 = call i32 @dissect_kafka_tagged_fields(ptr noundef %63, ptr noundef %64, ptr noundef %65, i32 noundef %66, i16 noundef signext 0)
  store i32 %67, ptr %9, align 4
  br label %68

68:                                               ; preds = %62, %52
  %69 = load ptr, ptr %11, align 8
  %70 = load ptr, ptr %6, align 8
  %71 = load i32, ptr %9, align 4
  call void @proto_item_set_end(ptr noundef %69, ptr noundef %70, i32 noundef %71)
  %72 = load ptr, ptr %11, align 8
  %73 = load i16, ptr %16, align 2
  %74 = sext i16 %73 to i32
  %75 = call ptr @val_to_str_const(i32 noundef %74, ptr noundef @kafka_security_protocol_types, ptr noundef @.str.694)
  %76 = load ptr, ptr %7, align 8
  %77 = getelementptr inbounds nuw %struct._packet_info, ptr %76, i32 0, i32 51
  %78 = load ptr, ptr %77, align 8
  %79 = load ptr, ptr %6, align 8
  %80 = load i32, ptr %13, align 4
  %81 = load i32, ptr %14, align 4
  %82 = call ptr @tvb_get_string_enc(ptr noundef %78, ptr noundef %79, i32 noundef %80, i32 noundef %81, i32 noundef 2)
  %83 = load i32, ptr %15, align 4
  call void (ptr, ptr, ...) @proto_item_append_text(ptr noundef %72, ptr noundef @.str.693, ptr noundef %75, ptr noundef %82, i32 noundef %83)
  %84 = load i32, ptr %9, align 4
  call void @llvm.lifetime.end.p0(i64 2, ptr %16) #12
  call void @llvm.lifetime.end.p0(i64 4, ptr %15) #12
  call void @llvm.lifetime.end.p0(i64 4, ptr %14) #12
  call void @llvm.lifetime.end.p0(i64 4, ptr %13) #12
  call void @llvm.lifetime.end.p0(i64 8, ptr %12) #12
  call void @llvm.lifetime.end.p0(i64 8, ptr %11) #12
  ret i32 %84
}