; Function Attrs: null_pointer_is_valid sspstrong uwtable
define internal noundef i32 @dissect_kafka_update_metadata_request_endpoint(ptr noundef %0, ptr noundef %1, ptr noundef %2, i32 noundef %3, i16 noundef signext %4) #0 {
  %6 = alloca ptr, align 8
  %7 = alloca i32, align 4
  %8 = alloca i32, align 4
  call void @llvm.lifetime.start.p0(i64 8, ptr nonnull %6) #9
  call void @llvm.lifetime.start.p0(i64 4, ptr nonnull %7) #9
  call void @llvm.lifetime.start.p0(i64 4, ptr nonnull %8) #9
  %9 = load i32, ptr @ett_kafka_broker_end_point, align 4
  %10 = call ptr @proto_tree_add_subtree(ptr noundef %2, ptr noundef %0, i32 noundef %3, i32 noundef -1, i32 noundef %9, ptr noundef nonnull %6, ptr noundef nonnull @.str.692)
  %11 = load i32, ptr @hf_kafka_broker_port, align 4
  %12 = call i32 @tvb_get_int32(ptr noundef %0, i32 noundef %3, i32 noundef 0)
  %13 = call ptr @proto_tree_add_item(ptr noundef %10, i32 noundef %11, ptr noundef %0, i32 noundef %3, i32 noundef 4, i32 noundef 0)
  %14 = add i32 %3, 4
  %15 = load i32, ptr @hf_kafka_broker_host, align 4
  %16 = icmp sgt i16 %4, 5
  %17 = zext i1 %16 to i32
  %18 = call fastcc i32 @dissect_kafka_string(ptr noundef %10, i32 noundef %15, ptr noundef %0, ptr noundef %1, i32 noundef %14, i32 noundef %17, ptr noundef nonnull %7, ptr noundef nonnull %8)
  %19 = icmp sgt i16 %4, 2
  br i1 %19, label %20, label %23

20:                                               ; preds = %5
  %21 = load i32, ptr @hf_kafka_listener_name, align 4
  %22 = call fastcc i32 @dissect_kafka_string(ptr noundef %10, i32 noundef %21, ptr noundef %0, ptr noundef %1, i32 noundef %18, i32 noundef %17, ptr noundef null, ptr noundef null)
  br label %23

23:                                               ; preds = %20, %5
  %.0 = phi i32 [ %22, %20 ], [ %18, %5 ]
  %24 = load i32, ptr @hf_kafka_broker_security_protocol_type, align 4
  %25 = call signext i16 @tvb_get_int16(ptr noundef %0, i32 noundef %.0, i32 noundef 0)
  %26 = call ptr @proto_tree_add_item(ptr noundef %10, i32 noundef %24, ptr noundef %0, i32 noundef %.0, i32 noundef 2, i32 noundef 0)
  %27 = add i32 %.0, 2
  br i1 %16, label %28, label %30

28:                                               ; preds = %23
  %29 = call fastcc i32 @dissect_kafka_tagged_fields(ptr noundef %0, ptr noundef %1, ptr noundef %10, i32 noundef %27)
  br label %30

30:                                               ; preds = %28, %23
  %.1 = phi i32 [ %29, %28 ], [ %27, %23 ]
  %31 = load ptr, ptr %6, align 8
  call void @proto_item_set_end(ptr noundef %31, ptr noundef %0, i32 noundef %.1)
  %32 = load ptr, ptr %6, align 8
  %33 = sext i16 %25 to i32
  %34 = call ptr @val_to_str_const(i32 noundef %33, ptr noundef nonnull @kafka_security_protocol_types, ptr noundef nonnull @.str.694)
  %35 = getelementptr inbounds nuw i8, ptr %1, i64 408
  %36 = load ptr, ptr %35, align 8
  %37 = load i32, ptr %7, align 4
  %38 = load i32, ptr %8, align 4
  %39 = call ptr @tvb_get_string_enc(ptr noundef %36, ptr noundef %0, i32 noundef %37, i32 noundef %38, i32 noundef 2)
  call void (ptr, ptr, ...) @proto_item_append_text(ptr noundef %32, ptr noundef nonnull @.str.693, ptr noundef %34, ptr noundef %39, i32 noundef %12)
  call void @llvm.lifetime.end.p0(i64 4, ptr nonnull %8) #9
  call void @llvm.lifetime.end.p0(i64 4, ptr nonnull %7) #9
  call void @llvm.lifetime.end.p0(i64 8, ptr nonnull %6) #9
  ret i32 %.1
}